; ModuleID = '6/1560.c'
source_filename = "6/1560.c"
target datalayout = "e-m:e-p270:32:32-p271:32:32-p272:64:64-i64:64-f80:128-n8:16:32:64-S128"
target triple = "x86_64-pc-linux-gnu"

@.str = private unnamed_addr constant [3 x i8] c"%d\00", align 1
@.str.1 = private unnamed_addr constant [5 x i8] c"%d%d\00", align 1
@.str.2 = private unnamed_addr constant [4 x i8] c"%d\0A\00", align 1

; Function Attrs: noinline nounwind uwtable
define dso_local i32 @main() #0 {
  %1 = alloca i32, align 4
  %2 = alloca i32, align 4
  %3 = alloca i32, align 4
  %4 = alloca i32, align 4
  %5 = alloca i32, align 4
  %6 = alloca i32, align 4
  %7 = alloca i32, align 4
  %8 = alloca i32, align 4
  %9 = alloca i32, align 4
  %10 = alloca [100 x [100 x i32]], align 16
  %11 = alloca [100 x i32], align 16
  %12 = alloca i32, align 4
  %13 = alloca i32, align 4
  store i32 0, i32* %1, align 4
  %14 = call i32 (i8*, ...) @__isoc99_scanf(i8* getelementptr inbounds ([3 x i8], [3 x i8]* @.str, i64 0, i64 0), i32* %2)
  store i32 0, i32* %12, align 4
  br label %15

15:                                               ; preds = %105, %0
  %16 = load i32, i32* %12, align 4
  %17 = load i32, i32* %2, align 4
  %18 = sub nsw i32 %17, 1
  %19 = icmp sle i32 %16, %18
  br i1 %19, label %20, label %108

20:                                               ; preds = %15
  store i32 0, i32* %5, align 4
  %21 = call i32 (i8*, ...) @__isoc99_scanf(i8* getelementptr inbounds ([5 x i8], [5 x i8]* @.str.1, i64 0, i64 0), i32* %3, i32* %4)
  store i32 0, i32* %6, align 4
  br label %22

22:                                               ; preds = %45, %20
  %23 = load i32, i32* %6, align 4
  %24 = load i32, i32* %3, align 4
  %25 = sub nsw i32 %24, 1
  %26 = icmp sle i32 %23, %25
  br i1 %26, label %27, label %48

27:                                               ; preds = %22
  store i32 0, i32* %7, align 4
  br label %28

28:                                               ; preds = %41, %27
  %29 = load i32, i32* %7, align 4
  %30 = load i32, i32* %4, align 4
  %31 = sub nsw i32 %30, 1
  %32 = icmp sle i32 %29, %31
  br i1 %32, label %33, label %44

33:                                               ; preds = %28
  %34 = load i32, i32* %6, align 4
  %35 = sext i32 %34 to i64
  %36 = getelementptr inbounds [100 x [100 x i32]], [100 x [100 x i32]]* %10, i64 0, i64 %35
  %37 = load i32, i32* %7, align 4
  %38 = sext i32 %37 to i64
  %39 = getelementptr inbounds [100 x i32], [100 x i32]* %36, i64 0, i64 %38
  %40 = call i32 (i8*, ...) @__isoc99_scanf(i8* getelementptr inbounds ([3 x i8], [3 x i8]* @.str, i64 0, i64 0), i32* %39)
  br label %41

41:                                               ; preds = %33
  %42 = load i32, i32* %7, align 4
  %43 = add nsw i32 %42, 1
  store i32 %43, i32* %7, align 4
  br label %28

44:                                               ; preds = %28
  br label %45

45:                                               ; preds = %44
  %46 = load i32, i32* %6, align 4
  %47 = add nsw i32 %46, 1
  store i32 %47, i32* %6, align 4
  br label %22

48:                                               ; preds = %22
  store i32 0, i32* %8, align 4
  br label %49

49:                                               ; preds = %71, %48
  %50 = load i32, i32* %8, align 4
  %51 = load i32, i32* %4, align 4
  %52 = sub nsw i32 %51, 1
  %53 = icmp sle i32 %50, %52
  br i1 %53, label %54, label %74

54:                                               ; preds = %49
  %55 = load i32, i32* %5, align 4
  %56 = getelementptr inbounds [100 x [100 x i32]], [100 x [100 x i32]]* %10, i64 0, i64 0
  %57 = load i32, i32* %8, align 4
  %58 = sext i32 %57 to i64
  %59 = getelementptr inbounds [100 x i32], [100 x i32]* %56, i64 0, i64 %58
  %60 = load i32, i32* %59, align 4
  %61 = add nsw i32 %55, %60
  %62 = load i32, i32* %3, align 4
  %63 = sub nsw i32 %62, 1
  %64 = sext i32 %63 to i64
  %65 = getelementptr inbounds [100 x [100 x i32]], [100 x [100 x i32]]* %10, i64 0, i64 %64
  %66 = load i32, i32* %8, align 4
  %67 = sext i32 %66 to i64
  %68 = getelementptr inbounds [100 x i32], [100 x i32]* %65, i64 0, i64 %67
  %69 = load i32, i32* %68, align 4
  %70 = add nsw i32 %61, %69
  store i32 %70, i32* %5, align 4
  br label %71

71:                                               ; preds = %54
  %72 = load i32, i32* %8, align 4
  %73 = add nsw i32 %72, 1
  store i32 %73, i32* %8, align 4
  br label %49

74:                                               ; preds = %49
  store i32 1, i32* %9, align 4
  br label %75

75:                                               ; preds = %97, %74
  %76 = load i32, i32* %9, align 4
  %77 = load i32, i32* %3, align 4
  %78 = sub nsw i32 %77, 2
  %79 = icmp sle i32 %76, %78
  br i1 %79, label %80, label %100

80:                                               ; preds = %75
  %81 = load i32, i32* %5, align 4
  %82 = load i32, i32* %9, align 4
  %83 = sext i32 %82 to i64
  %84 = getelementptr inbounds [100 x [100 x i32]], [100 x [100 x i32]]* %10, i64 0, i64 %83
  %85 = getelementptr inbounds [100 x i32], [100 x i32]* %84, i64 0, i64 0
  %86 = load i32, i32* %85, align 16
  %87 = add nsw i32 %81, %86
  %88 = load i32, i32* %9, align 4
  %89 = sext i32 %88 to i64
  %90 = getelementptr inbounds [100 x [100 x i32]], [100 x [100 x i32]]* %10, i64 0, i64 %89
  %91 = load i32, i32* %4, align 4
  %92 = sub nsw i32 %91, 1
  %93 = sext i32 %92 to i64
  %94 = getelementptr inbounds [100 x i32], [100 x i32]* %90, i64 0, i64 %93
  %95 = load i32, i32* %94, align 4
  %96 = add nsw i32 %87, %95
  store i32 %96, i32* %5, align 4
  br label %97

97:                                               ; preds = %80
  %98 = load i32, i32* %9, align 4
  %99 = add nsw i32 %98, 1
  store i32 %99, i32* %9, align 4
  br label %75

100:                                              ; preds = %75
  %101 = load i32, i32* %5, align 4
  %102 = load i32, i32* %12, align 4
  %103 = sext i32 %102 to i64
  %104 = getelementptr inbounds [100 x i32], [100 x i32]* %11, i64 0, i64 %103
  store i32 %101, i32* %104, align 4
  br label %105

105:                                              ; preds = %100
  %106 = load i32, i32* %12, align 4
  %107 = add nsw i32 %106, 1
  store i32 %107, i32* %12, align 4
  br label %15

108:                                              ; preds = %15
  store i32 0, i32* %13, align 4
  br label %109

109:                                              ; preds = %120, %108
  %110 = load i32, i32* %13, align 4
  %111 = load i32, i32* %2, align 4
  %112 = sub nsw i32 %111, 1
  %113 = icmp sle i32 %110, %112
  br i1 %113, label %114, label %123

114:                                              ; preds = %109
  %115 = load i32, i32* %13, align 4
  %116 = sext i32 %115 to i64
  %117 = getelementptr inbounds [100 x i32], [100 x i32]* %11, i64 0, i64 %116
  %118 = load i32, i32* %117, align 4
  %119 = call i32 (i8*, ...) @printf(i8* getelementptr inbounds ([4 x i8], [4 x i8]* @.str.2, i64 0, i64 0), i32 %118)
  br label %120

120:                                              ; preds = %114
  %121 = load i32, i32* %13, align 4
  %122 = add nsw i32 %121, 1
  store i32 %122, i32* %13, align 4
  br label %109

123:                                              ; preds = %109
  ret i32 0
}

declare dso_local i32 @__isoc99_scanf(i8*, ...) #1

declare dso_local i32 @printf(i8*, ...) #1


!llvm.module.flags = !{!0}
!llvm.ident = !{!1}

!0 = !{i32 1, !"wchar_size", i32 4}
!1 = !{!"clang version 10.0.0-4ubuntu1 "}
